     VMA      LMA     Size Align Out     In      Symbol
       0        0        0     1 KLOAD = 0x0000A000
       0        0        0     1 PHYS0 = 0x00000000
       0        0     a000     1 . = KLOAD
    a000        0     26ad    16 .text
    a000        0       26    16         build\start.o:(.text.boot)
    a000        0        0     1                 kernel_entry
    a023       23        0     1                 kernel_entry.halt
    a030       30      417    16         build\descriptors.o:(.text)
    a030       30       dc     1                 gdt_init
    a110      110       a7     1                 gdt_set_gate
    a1c0      1c0       e3     1                 idt_init
    a2b0      2b0       76     1                 idt_set_gate
    a330      330       12     1                 outportb
    a350      350       16     1                 inportb
    a370      370       d7     1                 pic_init
    a450      450       1d    16         build\gdt.o:(.text)
    a450      450        0     1                 gdt_flush
    a46c      46c        0     1                 gdt_flush.flush
    a470      470       14    16         build\interrupts.o:(.text)
    a470      470        0     1                 idt_load
    a478      478        0     1                 keyboard_handler_wrapper
    a490      490     1466    16         build\kernel.o:(.text)
    a490      490       4d     1                 enable_bliking_text
    a4e0      4e0       16     1                 inportb
    a500      500       12     1                 outportb
    a520      520       4f     1                 disable_bliking_text
    a570      570       8d     1                 enable_cursor
    a600      600       33     1                 disable_cursor
    a640      640       87     1                 move_cursor
    a6d0      6d0       27     1                 sleep
    a700      700       60     1                 put
    a760      760      270     1                 putc
    a9d0      9d0       a5     1                 clear
    aa80      a80       50     1                 puts
    aad0      ad0       b0     1                 puti
    ab80      b80       91     1                 k_init
    ac20      c20       50     1                 restart_keyboard
    ac70      c70       38     1                 get_scancode
    acb0      cb0        9     1                 io_wait
    acc0      cc0      c36     1                 k_entrypoint
    b900     1900      57f    16         build\keyboard.o:(.text)
    b900     1900      16c     1                 keyboard_init
    ba70     1a70      1df     1                 keyboard_handler
    bc50     1c50       16     1                 inportb
    bc70     1c70       f8     1                 keyboard_get_char
    bd70     1d70       16     1                 keyboard_get_key_state
    bd90     1d90       22     1                 keyboard_is_key_pressed
    bdc0     1dc0       22     1                 keyboard_is_key_held
    bdf0     1df0       22     1                 keyboard_is_key_released
    be20     1e20        a     1                 keyboard_get_last_char
    be30     1e30       37     1                 keyboard_next_layout
    be70     1e70        f     1                 keyboard_get_current_layout_name
    be80     1e80      62f    16         build\memory.o:(.text)
    be80     1e80      132     1                 mem_init
    bfc0     1fc0      12f     1                 kmalloc
    c0f0     20f0       82     1                 kfree
    c180     2180       73     1                 merge_free_blocks
    c200     2200       41     1                 mem_stats
    c250     2250      1a0     1                 print_memory_map
    c3f0     23f0       bf     1                 print_memory_stats
    c4b0     24b0      1fd    16         build\string.o:(.text)
    c4b0     24b0       4f     1                 memcpy
    c500     2500       a6     1                 memmove
    c5b0     25b0       49     1                 memset
    c600     2600       79     1                 memcmp
    c680     2680       2d     1                 strlen
    c6ad     26ad      349     1 .rodata
    c6ad     26ad      164     1         build\kernel.o:(.rodata)
    c811     2811      1e5     1         <internal>:(.rodata.str1.1)
    c9f6     29f6      122     1 .data
    c9f6     29f6      122     1         build\keyboard.o:(.data)
    c9f6     29f6       3a     1                 layout_us
    ca30     2a30       3a     1                 layout_us_shift
    ca6a     2a6a       3a     1                 layout_fr
    caa4     2aa4       3a     1                 layout_fr_shift
    cade     2ade       3a     1                 layout_fr_altgr
    cb18     2b18       34     4 .bss
    cb18     2b18       10     4         build\descriptors.o:(.bss)
    cb18     2b18        4     1                 gdt_entries
    cb1c     2b1c        4     1                 gdt_ptr
    cb20     2b20        4     1                 idt_entries
    cb24     2b24        4     1                 idt_ptr
    cb28     2b28       10     4         build\keyboard.o:(.bss)
    cb28     2b28        1     1                 last_scancode
    cb2c     2b2c        4     1                 kb_state
    cb30     2b30        1     1                 last_char
    cb34     2b34        4     1                 keyboard_next_layout.current_layout_index
    cb38     2b38       14     4         build\memory.o:(.bss)
    cb38     2b38       14     1                 memoryManager
       0        0       29     1 .comment
       0        0       29     1         <internal>:(.comment)
       0        0      4f0     4 .symtab
       0        0      4f0     4         <internal>:(.symtab)
       0        0       3d     1 .shstrtab
       0        0       3d     1         <internal>:(.shstrtab)
       0        0      463     1 .strtab
       0        0      463     1         <internal>:(.strtab)
